; Function Attrs: mustprogress uwtable
define void @_ZNK5faiss22IndexAdditiveQuantizer9sa_encodeElPKfPh(ptr nocapture noundef nonnull readonly align 8 dereferenceable(80) %0, i64 noundef %1, ptr noundef %2, ptr noundef %3) unnamed_addr #2 align 2 {
  %5 = getelementptr inbounds i8, ptr %0, i64 72
  %6 = load ptr, ptr %5, align 8
  %7 = load ptr, ptr %6, align 8
  %8 = getelementptr inbounds i8, ptr %7, i64 8
  %9 = load ptr, ptr %8, align 8
  tail call void %9(ptr noundef nonnull align 8 dereferenceable(308) %6, ptr noundef %2, ptr noundef %3, i64 noundef %1)
  ret void
}